(dp1
S'output'
p2
S"<type 'exceptions.IOError'> [Errno 2] No such file or directory: '/home/eddgt/Documentos/output_cron/alarmas/revisa_cdc_programacion.txt'"
p3
sS'layer'
p4
S'/home/eddgt/public_html/web2py/web2py/applications/hercules/controllers/default.py'
p5
sS'code'
p6
S'# -*- coding: utf-8 -*-\n# this file is released under public domain and you can use without limitations\n\n#########################################################################\n## This is a sample controller\n## - index is the default action of any application\n## - user is required for authentication and authorization\n## - download is for downloading files uploaded in the db (does streaming)\n## - call exposes all registered services (none by default)\n#########################################################################\n\n\ndef index():\n    """\n    example action using the internationalization operator T and flash\n    rendered by views/default/index.html or views/generic.html\n\n    if you need a simple wiki simply replace the two lines below with:\n    return auth.wiki()\n    """\n    response.flash = T("Welcome to web2py!")\n    return dict(message=T(\'Hello World\'))\n\n\ndef user():\n    """\n    exposes:\n    http://..../[app]/default/user/login\n    http://..../[app]/default/user/logout\n    http://..../[app]/default/user/register\n    http://..../[app]/default/user/profile\n    http://..../[app]/default/user/retrieve_password\n    http://..../[app]/default/user/change_password\n    http://..../[app]/default/user/manage_users (requires membership in\n    use @auth.requires_login()\n        @auth.requires_membership(\'group name\')\n        @auth.requires_permission(\'read\',\'table name\',record_id)\n    to decorate functions that need access control\n    """\n    return dict(form=auth())\n\n@cache.action()\ndef download():\n    """\n    allows downloading of uploaded files\n    http://..../[app]/default/download/[filename]\n    """\n    return response.download(request, db)\n\n\ndef call():\n    """\n    exposes services. for example:\n    http://..../[app]/default/call/jsonrpc\n    decorate with @services.jsonrpc the functions to expose\n    supports xml, json, xmlrpc, jsonrpc, amfrpc, rss, csv\n    """\n    return service()\n\n\n@auth.requires_signature()\ndef data():\n    """\n    http://..../[app]/default/data/tables\n    http://..../[app]/default/data/create/[table]\n    http://..../[app]/default/data/read/[table]/[id]\n    http://..../[app]/default/data/update/[table]/[id]\n    http://..../[app]/default/data/delete/[table]/[id]\n    http://..../[app]/default/data/select/[table]\n    http://..../[app]/default/data/search/[table]\n    but URLs must be signed, i.e. linked with\n      A(\'table\',_href=URL(\'data/tables\',user_signature=True))\n    or with the signed load operator\n      LOAD(\'default\',\'data.load\',args=\'tables\',ajax=True,user_signature=True)\n    """\n    return dict(form=crud())\n\ndef conteo():\n    session.conteo=(session.conteo or 0)+1\n    return dict(conteo=session.conteo, ahora=request.now)\n\ndef leeArchivo():\n    archivo = open(\'/home/eddgt/Documentos/output_cron/alarmas/revisa_cdc_programacion.txt\',\'r\')\n    linea = archivo.read()\n    if linea == """\\n0\\n""":\n        return dict(mensaje="""Todo ok! en el archivo croneado Archivo.txt,\\n\n                                Contenido en el archivo: """+linea)\n\n    else:\n         return dict(mensaje="""Hay un problema en la cdc_programacion,\\n\n                                Contenido en el archivo: """+linea)\n         """\n            mail.send(to=[\'edmundo_ulloa@hotmail.com\'],\n         subject=\'Alarma - CDC - Claro CR\',\n         #cc=[\'edmundoulloa7@gmail.com\'],\n         message=\'<html><body><p>Alarma: <br> <br> Revisar cdc_programacion, existen regisros con estado = E  <br>  <br> <br>Osman E. Ulloa <br>Soporte Regional Televida</p></body> </html>\',\n    #attachments = mail.Attachment(\'/home/eddgt/Documentos/output_cron/suscrip_157/reporte.zip\',content_id=\'alarmacdc\')\n    )"""\n\nresponse._vars=response._caller(leeArchivo)\n'
p7
sS'snapshot'
p8
(dp9
sS'traceback'
p10
S'Traceback (most recent call last):\n  File "/home/eddgt/public_html/web2py/web2py/gluon/restricted.py", line 220, in restricted\n    exec ccode in environment\n  File "/home/eddgt/public_html/web2py/web2py/applications/hercules/controllers/default.py", line 100, in <module>\n  File "/home/eddgt/public_html/web2py/web2py/gluon/globals.py", line 385, in <lambda>\n    self._caller = lambda f: f()\n  File "/home/eddgt/public_html/web2py/web2py/applications/hercules/controllers/default.py", line 83, in leeArchivo\n    archivo = open(\'/home/eddgt/Documentos/output_cron/alarmas/revisa_cdc_programacion.txt\',\'r\')\nIOError: [Errno 2] No such file or directory: \'/home/eddgt/Documentos/output_cron/alarmas/revisa_cdc_programacion.txt\'\n'
p11
s.