(dp1
S'output'
p2
S"<type 'exceptions.AttributeError'> 'DAL' object has no attribute 'scheduler_tasks'"
p3
sS'layer'
p4
S'/home/eddgt/public_html/web2py/web2py/applications/hercules/controllers/default.py'
p5
sS'code'
p6
S'# -*- coding: utf-8 -*-\n# this file is released under public domain and you can use without limitations\n\n#########################################################################\n## This is a sample controller\n## - index is the default action of any application\n## - user is required for authentication and authorization\n## - download is for downloading files uploaded in the db (does streaming)\n## - call exposes all registered services (none by default)\n#########################################################################\n\n\ndef index():\n    """\n    example action using the internationalization operator T and flash\n    rendered by views/default/index.html or views/generic.html\n\n    if you need a simple wiki simply replace the two lines below with:\n    return auth.wiki()\n    """\n    response.flash = T("Welcome to web2py!")\n    return dict(message=T(\'Hello World\'))\n\n\ndef user():\n    """\n    exposes:\n    http://..../[app]/default/user/login\n    http://..../[app]/default/user/logout\n    http://..../[app]/default/user/register\n    http://..../[app]/default/user/profile\n    http://..../[app]/default/user/retrieve_password\n    http://..../[app]/default/user/change_password\n    http://..../[app]/default/user/manage_users (requires membership in\n    use @auth.requires_login()\n        @auth.requires_membership(\'group name\')\n        @auth.requires_permission(\'read\',\'table name\',record_id)\n    to decorate functions that need access control\n    """\n    return dict(form=auth())\n\n@cache.action()\ndef download():\n    """\n    allows downloading of uploaded files\n    http://..../[app]/default/download/[filename]\n    """\n    return response.download(request, db)\n\n\ndef call():\n    """\n    exposes services. for example:\n    http://..../[app]/default/call/jsonrpc\n    decorate with @services.jsonrpc the functions to expose\n    supports xml, json, xmlrpc, jsonrpc, amfrpc, rss, csv\n    """\n    return service()\n\n\n@auth.requires_signature()\ndef data():\n    """\n    http://..../[app]/default/data/tables\n    http://..../[app]/default/data/create/[table]\n    http://..../[app]/default/data/read/[table]/[id]\n    http://..../[app]/default/data/update/[table]/[id]\n    http://..../[app]/default/data/delete/[table]/[id]\n    http://..../[app]/default/data/select/[table]\n    http://..../[app]/default/data/search/[table]\n    but URLs must be signed, i.e. linked with\n      A(\'table\',_href=URL(\'data/tables\',user_signature=True))\n    or with the signed load operator\n      LOAD(\'default\',\'data.load\',args=\'tables\',ajax=True,user_signature=True)\n    """\n    return dict(form=crud())\n\ndef conteo():\n    session.conteo=(session.conteo or 0)+1\n    return dict(conteo=session.conteo, ahora=request.now)\n\ndef leeArchivo():\n    archivo = open(\'/home/eddgt/Documentos/output_cron/alarmas/revisa_cdc_programacion.txt\',\'r\')\n    linea = archivo.read()\n    if linea == """\\n0\\n""":\n\n        return dict(mensaje="""Todo ok! en el archivo croneado /home/eddgt/Documentos/output_cron/alarmas/revisa_cdc_programacion.txt,\\n\n                                Contenido en el archivo: """+linea)\n#redirect(URL("http://localhost:8000/hercules/default/enviaSMS"))\n    else:\n        enviaSMS()\n        enviaCorreo()\n        #return dict(mensaje="""Hay un problema en la cdc_programacion,\\n\n         #                       Contenido en el archivo: """+linea)\ndef enviaCorreo():\n        mail.send(to=[\'edmundo_ulloa@hotmail.com\'],\n        subject=\'Alarma - CDC - Claro CR\',\n        #cc=[\'edmundoulloa7@gmail.com\'],\n        message=\'<html><body><p>Alarma: <br> <br> Revisar cdc_programacion, existen regisros con estado = E  <br>  <br> <br>Osman E. Ulloa <br>Soporte Regional Televida</p></body> </html>\',\n    #attachments = mail.Attachment(\'/home/eddgt/Documentos/output_cron/suscrip_157/reporte.zip\',content_id=\'alarmacdc\')\n    )\n\ndef enviaSMS():\n    import os\n    os.system("wget -U firefox -O mail.log  http://172.168.1.8:13200/sendsms?username=televida\\&password=voiceweb\\&from=5028260\\&smsc=claro\\&dlr-mask=0\\&coding=0\\&mclass=1\\&to=50254656344\\&text=Alerta%20Activa%20:%20Revisar%20cdc_programacion%20existen%20registros%20en%20estado%20E%20.")\n\ndef enviaSMS2():\n    import os\n    os.system("wget -U firefox -O sms2.log http://172.168.1.10:13200/sendsms?username=televida\\&password=voiceweb\\&from=42644194\\&smsc=mymodem\\&dlr-mask=0\\&to=52364478\\&text=Alarma%20Activa%20:%20Revisar%20cdc_programacion%20existen%20registros%20en%20estado%20E%20.")\n\ndef  smsFallidos():\n    import os\n    os.system("wget -U firefox -O smsFallidos.log  http://172.168.1.8:13200/sendsms?username=televida\\&password=voiceweb\\&from=5028260\\&smsc=claro\\&dlr-mask=0\\&coding=0\\&mclass=1\\&to=50254656344\\&text=Alerta%20Activa%20:%Revisar%20be_http_request_response%20existen%20paquetes%20Fallidos!%20.")\n\n    """os.system("wget -U firefox -O smsFallidos.log http://172.168.1.10:13200/sendsms?username=televida\\&password=voiceweb\\&from=42644194\\&smsc=mymodem\\&dlr-mask=0\\&to=54656344\\&text=\'Alarma Activa -  Se encontraron paquetes fallids en be_http_request_response de Apolo\'")"""\n\ndef revisaFallidos():\n    archivo = open(\'/home/eddgt/Documentos/output_cron/alarmas/revisa_fallidos_beconnected.txt\',\'r\')\n    linea = archivo.read()\n\n    if linea == """\\n0\\n""":\n        return dict(mensaje="""Todo ok! en el archivo croneado /home/eddgt/Documentos/output_cron/alarmas/revisa_fallidos_beconnected.txt,\\n\n                                Contenido en el archivo: """+linea)\n    else:\n        smsFallidos()\n        return dict(mensaje="""resultado archivo croneado /home/eddgt/Documentos/output_cron/alarmas/revisa_fallidos_beconnected.txt,\\n\n                                Contenido en el archivo: """+linea)\n\ndef sendReportDigicelSV():\n    import datetime\n    today = datetime.datetime.now()\n    dateFormat=today.strftime("%Y%m%d")\n    #reportToSend=\'TELEVIDA_\'+dateFormat+\'.zip\'\n    reportToSend=\'reporte.zip\'\n\n    lineas = len(open(\'/home/eddgt/Documentos/output_cron/reportes/claroni/reporte.csv\').readlines())\n\n    if lineas>30000:\n        print "envio reporte, tiene "+str(lineas)+" lineas"\n\n        #mail parameters\n        mail.send(to=[\'edmundo_ulloa@hotmail.com\'],\n        #mail.send(to=[\'Saribels.Sanjur@telefonica.com\'],\n        subject=\'Test-Reporte usuarios activos Digicel\',\n        # If reply_to is omitted, then mail.settings.sender is used\n        #cc=[\'edmundoulloa7@gmail.com\',\'soporte247@televida.biz\'],\n        #cc=[\'clientes.pa@televida.biz\',\'scuchillas@televida.biz\',\'msamayoa@televida.biz\',\'dcamacho@televida.biz\',\'soporte247@televida.biz\'],\n        message=\'<html><body><p>Buen d\xc3\xada <br> <br> Adjunto env\xc3\xado reporte "Usuarios activos Digicel " al dia de hoy  <br>  <br>Cualquier consulta estamos a la orden,<br> Atte, <br>  <br>Osman E. Ulloa <br>Soporte Regional Televida</p></body> </html>\'+str(lineas),\n        attachments = mail.Attachment(\'/home/eddgt/Documentos/output_cron/reportes/claroni/\'+reportToSend,\n                                   content_id=\'myreport\'))\n        return dict(mensaje="""report sent with: """+str(lineas)+" lineas")\n    else:\n        return dict(mensaje="""report dont sent with: """+str(lineas)+" lineas "+str(today))\n    pass\n\ndef sendReportKwClaroNi():\n        mail.send(to=[\'oulloa@televida.biz\'],\n        #mail.send(to=[\'\'],\n        subject=\'Test - Reporte Suscritos KW GANA - Claro NI\',\n        cc=[\'soporte247@televida.biz\'],\n        message=\'<html><body><p>Buen d\xc3\xada <br> <br> Adjunto env\xc3\xado reporte "Estado de Usuarios suscritos por medio de KW GANA " correspondiente a la semana pasada generado el dia de hoy  <br>  <br>Cualquier consulta estamos a la orden,<br> Atte. <br>  <br>Osman E. Ulloa <br>Soporte Regional Televida</p></body> </html>\',\n    attachments = mail.Attachment(\'/home/eddgt/Documentos/output_cron/reportes/claroni/reporteKwGanaSus239.csv\',\n                                   content_id=\'myreport\'))\n\ndef sendReportActiveUsersMvstrSV():\n        mail.send(to=[\'edmundo_ulloa@hotmail.com\'],\n        #mail.send(to=[\'josealberto.calderon@telefonica.com\'],\n        subject=\'Reporte Suscritos Megapremios y Back To School\',\n        cc=[\'edmundoulloa7@gmail.com\'],\n        #cc=[\'mrodriguez@televida.biz\', \'dsolombrino@televida.biz\', \'cestrada@televida.biz\', \'slima@televida.biz\'],\n        message="""<html><body><p>Buen d\xc3\xada <br> <br>Se envia el reporte solicitado de Numeros suscritos activos en Megapremios Movistar SV , Back to School Movistar SV y Suscritos en Ambos<br>  <br>Cualquier consulta estamos a la orden,<br> Atte. <br>  <br>Osman E. Ulloa <br>Soporte Regional Televida</p></body> </html>""",\n    attachments = mail.Attachment(\'/home/eddgt/Documentos/output_cron/reportes/movistarsv/reporteActivosMovistarSV.xlsx\',\n                                   content_id=\'mvstrReport\'))\n\ndef myScheduler():\n    formulario =SQLFORM.smartgrid(db.scheduler_tasks)\n    return locals()\n\nresponse._vars=response._caller(myScheduler)\n'
p7
sS'snapshot'
p8
(dp9
sS'traceback'
p10
S'Traceback (most recent call last):\n  File "/home/eddgt/public_html/web2py/web2py/gluon/restricted.py", line 220, in restricted\n    exec ccode in environment\n  File "/home/eddgt/public_html/web2py/web2py/applications/hercules/controllers/default.py", line 179, in <module>\n  File "/home/eddgt/public_html/web2py/web2py/gluon/globals.py", line 385, in <lambda>\n    self._caller = lambda f: f()\n  File "/home/eddgt/public_html/web2py/web2py/applications/hercules/controllers/default.py", line 176, in myScheduler\n    formulario =SQLFORM.smartgrid(db.scheduler_tasks)\n  File "/home/eddgt/public_html/web2py/web2py/gluon/dal.py", line 8333, in __getattr__\n    return ogetattr(self, key)\nAttributeError: \'DAL\' object has no attribute \'scheduler_tasks\'\n'
p11
s.