(dp1
S'output'
p2
S"<type 'exceptions.AttributeError'> 'list' object has no attribute 'decode'"
p3
sS'layer'
p4
S'/home/eddgt/public_html/web2py/web2py/applications/blog/controllers/configmenu.py'
p5
sS'code'
p6
S'# coding: utf8\n# intente algo como\ndef index(): return dict(message="hello from configmenu.py")\n\ndef articulos():\n    formulario =SQLFORM.smartgrid(db.articulo)\n    return locals()\n\ndef usuarios():\n    formulario =SQLFORM.grid(db.auth_user)\n    return locals()\n\ndef enviaCorreo():\n#mail.send(\'oulloa@televida.biz\',\n# \'Asunto del mensaje\',\n#  \'<html><img src="cid:foto" /></html>\',\n#  attachments = mail.Attachment(\'/home/eddgt/IMG_03072014_163916.png\', content_id=\'foto\'))\n\n        mail.send(to=[\'edmundo_ulloa@hotmail.com\'],\n          subject=\'Test mail - Web2py function\',\n          # If reply_to is omitted, then mail.settings.sender is used\n          reply_to=[\'edmundo_ulloa@yahoo.com\',\'edmundoulloa7@gmail.com\'],\n          message=\'hi there\',\n    #attachments = mail.Attachment(\'/home/eddgt/IMG_03072014_163916.png\', content_id=\'foto\')),\n    attachments = mail.Attachment(\'/home/eddgt/Documentos/output_cron/suscrip_157/reporte.zip\',\n                                   content_id=\'myreport\'))\n\nresponse._vars=response._caller(enviaCorreo)\n'
p7
sS'snapshot'
p8
(dp9
sS'traceback'
p10
S'Traceback (most recent call last):\n  File "/home/eddgt/public_html/web2py/web2py/gluon/restricted.py", line 220, in restricted\n    exec ccode in environment\n  File "/home/eddgt/public_html/web2py/web2py/applications/blog/controllers/configmenu.py", line 28, in <module>\n  File "/home/eddgt/public_html/web2py/web2py/gluon/globals.py", line 385, in <lambda>\n    self._caller = lambda f: f()\n  File "/home/eddgt/public_html/web2py/web2py/applications/blog/controllers/configmenu.py", line 26, in enviaCorreo\n    content_id=\'myreport\'))\n  File "/home/eddgt/public_html/web2py/web2py/gluon/tools.py", line 677, in send\n    payload[\'Reply-To\'] = encoded_or_raw(reply_to.decode(encoding))\nAttributeError: \'list\' object has no attribute \'decode\'\n'
p11
s.