(dp1
S'output'
p2
S"<type 'exceptions.AttributeError'> type object 'SQLFORM' has no attribute 'gridsmart'"
p3
sS'layer'
p4
S'/home/eddgt/public_html/web2py/web2py/applications/blog/controllers/configmenu.py'
p5
sS'code'
p6
S'# coding: utf8\n# intente algo como\ndef index(): return dict(message="hello from configmenu.py")\n\ndef articulos():\n    formulario =SQLFORM.gridsmart(db.articulo)\n    return locals()\n\nresponse._vars=response._caller(articulos)\n'
p7
sS'snapshot'
p8
(dp9
sS'traceback'
p10
S'Traceback (most recent call last):\n  File "/home/eddgt/public_html/web2py/web2py/gluon/restricted.py", line 220, in restricted\n    exec ccode in environment\n  File "/home/eddgt/public_html/web2py/web2py/applications/blog/controllers/configmenu.py", line 9, in <module>\n  File "/home/eddgt/public_html/web2py/web2py/gluon/globals.py", line 385, in <lambda>\n    self._caller = lambda f: f()\n  File "/home/eddgt/public_html/web2py/web2py/applications/blog/controllers/configmenu.py", line 6, in articulos\n    formulario =SQLFORM.gridsmart(db.articulo)\nAttributeError: type object \'SQLFORM\' has no attribute \'gridsmart\'\n'
p11
s.